target datalayout = "e-m:e-p270:32:32-p271:32:32-p272:64:64-i64:64-i128:128-f80:128-n8:16:32:64-S128"
target triple = "x86_64-pc-linux-gnu"

%class.QString = type { %struct.QArrayDataPointer }
%struct.QArrayDataPointer = type { ptr, ptr, i64 }
%class.ImageViewer = type { %class.QMainWindow, ptr, ptr, ptr, ptr, double, ptr, ptr, ptr, ptr, ptr, ptr, ptr, ptr, ptr, ptr }
%class.QMainWindow = type { %class.QWidget }
%class.QWidget = type { %class.QObject, %class.QPaintDevice.base, ptr }
%class.QObject = type { ptr, %class.QScopedPointer }
%class.QScopedPointer = type { ptr }
%class.QPaintDevice.base = type <{ ptr, i16 }>
%class.QImage = type { %class.QPaintDevice.base, ptr }
%class.QPixmap = type { %class.QPaintDevice.base, %class.QExplicitlySharedDataPointer }
%class.QExplicitlySharedDataPointer = type { ptr }
%class.QFlags.0 = type { i32 }

; Function Attrs: mustprogress uwtable
define void @_ZN11ImageViewer13updateActionsEv(ptr noundef nonnull align 8 dereferenceable(160) %0) #0 align 2 {
  %2 = alloca ptr, align 8
  store ptr %0, ptr %2, align 8, !tbaa !3
  %3 = load ptr, ptr %2, align 8
  %4 = getelementptr inbounds nuw %class.ImageViewer, ptr %3, i32 0, i32 9
  %5 = load ptr, ptr %4, align 8, !tbaa !40
  %6 = getelementptr inbounds nuw %class.ImageViewer, ptr %3, i32 0, i32 12
  %7 = load ptr, ptr %6, align 8, !tbaa !43
  %8 = call noundef zeroext i1 @_ZNK7QAction9isCheckedEv(ptr noundef nonnull align 8 dereferenceable(16) %7)
  %9 = xor i1 %8, true
  call void @_ZN7QAction10setEnabledEb(ptr noundef nonnull align 8 dereferenceable(16) %5, i1 noundef zeroext %9)
  %10 = getelementptr inbounds nuw %class.ImageViewer, ptr %3, i32 0, i32 10
  %11 = load ptr, ptr %10, align 8, !tbaa !41
  %12 = getelementptr inbounds nuw %class.ImageViewer, ptr %3, i32 0, i32 12
  %13 = load ptr, ptr %12, align 8, !tbaa !43
  %14 = call noundef zeroext i1 @_ZNK7QAction9isCheckedEv(ptr noundef nonnull align 8 dereferenceable(16) %13)
  %15 = xor i1 %14, true
  call void @_ZN7QAction10setEnabledEb(ptr noundef nonnull align 8 dereferenceable(16) %11, i1 noundef zeroext %15)
  %16 = getelementptr inbounds nuw %class.ImageViewer, ptr %3, i32 0, i32 11
  %17 = load ptr, ptr %16, align 8, !tbaa !42
  %18 = getelementptr inbounds nuw %class.ImageViewer, ptr %3, i32 0, i32 12
  %19 = load ptr, ptr %18, align 8, !tbaa !43
  %20 = call noundef zeroext i1 @_ZNK7QAction9isCheckedEv(ptr noundef nonnull align 8 dereferenceable(16) %19)
  %21 = xor i1 %20, true
  call void @_ZN7QAction10setEnabledEb(ptr noundef nonnull align 8 dereferenceable(16) %17, i1 noundef zeroext %21)
  ret void
}

; Function Attrs: inlinehint mustprogress nounwind uwtable
define linkonce_odr void @_ZN6QFlagsIN2Qt19ImageConversionFlagEEC2ES1_(ptr noundef nonnull align 4 dereferenceable(4) %0, i32 noundef %1) unnamed_addr #1 comdat align 2 {
  %3 = alloca ptr, align 8
  %4 = alloca i32, align 4
  store ptr %0, ptr %3, align 8, !tbaa !63
  store i32 %1, ptr %4, align 4, !tbaa !65
  %5 = load ptr, ptr %3, align 8
  %6 = getelementptr inbounds nuw %class.QFlags.0, ptr %5, i32 0, i32 0
  %7 = load i32, ptr %4, align 4, !tbaa !65
  store i32 %7, ptr %6, align 4, !tbaa !67
  ret void
}

; Function Attrs: inlinehint mustprogress nounwind uwtable
define linkonce_odr noundef zeroext i1 @_ZNK7QString7isEmptyEv(ptr noundef nonnull align 8 dereferenceable(24) %0) #1 comdat align 2 {
  %2 = alloca ptr, align 8
  store ptr %0, ptr %2, align 8, !tbaa !50
  %3 = load ptr, ptr %2, align 8
  %4 = getelementptr inbounds nuw %class.QString, ptr %3, i32 0, i32 0
  %5 = getelementptr inbounds nuw %struct.QArrayDataPointer, ptr %4, i32 0, i32 2
  %6 = load i64, ptr %5, align 8, !tbaa !61
  %7 = icmp eq i64 %6, 0
  ret i1 %7
}

; Function Attrs: mustprogress uwtable
define noundef zeroext i1 @_ZN11ImageViewer4openERK7QString(ptr noundef nonnull align 8 dereferenceable(160) %0, ptr noundef nonnull align 8 dereferenceable(24) %1) #0 align 2 personality ptr @__gxx_personality_v0 {
  %3 = alloca i1, align 1
  %4 = alloca ptr, align 8
  %5 = alloca ptr, align 8
  %6 = alloca %class.QImage, align 8
  %7 = alloca ptr, align 8
  %8 = alloca i32, align 4
  %9 = alloca i32, align 4
  %10 = alloca %class.QPixmap, align 8
  %11 = alloca %class.QFlags.0, align 4
  store ptr %0, ptr %4, align 8, !tbaa !3
  store ptr %1, ptr %5, align 8, !tbaa !50
  %12 = load ptr, ptr %4, align 8
  %13 = load ptr, ptr %5, align 8, !tbaa !50
  %14 = call noundef zeroext i1 @_ZNK7QString7isEmptyEv(ptr noundef nonnull align 8 dereferenceable(24) %13)
  br i1 %14, label %58, label %15

15:                                               ; preds = %2
  call void @llvm.lifetime.start.p0(i64 24, ptr %6) #12
  %16 = load ptr, ptr %5, align 8, !tbaa !50
  call void @_ZN6QImageC1ERK7QStringPKc(ptr noundef nonnull align 8 dereferenceable(24) %6, ptr noundef nonnull align 8 dereferenceable(24) %16, ptr noundef null)
  %17 = invoke noundef zeroext i1 @_ZNK6QImage6isNullEv(ptr noundef nonnull align 8 dereferenceable(24) %6)
          to label %18 unwind label %20

18:                                               ; preds = %15
  br i1 %17, label %19, label %24

19:                                               ; preds = %18
  store i1 false, ptr %3, align 1
  store i32 1, ptr %9, align 4
  br label %54

20:                                               ; preds = %40, %35, %34, %30, %15
  %21 = landingpad { ptr, i32 }
          cleanup
  %22 = extractvalue { ptr, i32 } %21, 0
  store ptr %22, ptr %7, align 8
  %23 = extractvalue { ptr, i32 } %21, 1
  store i32 %23, ptr %8, align 4
  br label %57

24:                                               ; preds = %18
  %25 = getelementptr inbounds nuw %class.ImageViewer, ptr %12, i32 0, i32 3
  %26 = load ptr, ptr %25, align 8, !tbaa !10
  call void @llvm.lifetime.start.p0(i64 24, ptr %10) #12
  call void @_ZN6QFlagsIN2Qt19ImageConversionFlagEEC2ES1_(ptr noundef nonnull align 4 dereferenceable(4) %11, i32 noundef 0) #12
  %27 = getelementptr inbounds nuw %class.QFlags.0, ptr %11, i32 0, i32 0
  %28 = load i32, ptr %27, align 4
  invoke void @_ZN7QPixmap9fromImageERK6QImage6QFlagsIN2Qt19ImageConversionFlagEE(ptr dead_on_unwind writable sret(%class.QPixmap) align 8 %10, ptr noundef nonnull align 8 dereferenceable(24) %6, i32 %28)
          to label %29 unwind label %44

29:                                               ; preds = %24
  invoke void @_ZN6QLabel9setPixmapERK7QPixmap(ptr noundef nonnull align 8 dereferenceable(40) %26, ptr noundef nonnull align 8 dereferenceable(24) %10)
          to label %30 unwind label %48

30:                                               ; preds = %29
  call void @_ZN7QPixmapD1Ev(ptr noundef nonnull align 8 dereferenceable(24) %10) #12
  call void @llvm.lifetime.end.p0(i64 24, ptr %10) #12
  %31 = getelementptr inbounds nuw %class.ImageViewer, ptr %12, i32 0, i32 5
  store double 1.000000e+00, ptr %31, align 8, !tbaa !60
  %32 = getelementptr inbounds nuw %class.ImageViewer, ptr %12, i32 0, i32 12
  %33 = load ptr, ptr %32, align 8, !tbaa !43
  invoke void @_ZN7QAction10setEnabledEb(ptr noundef nonnull align 8 dereferenceable(16) %33, i1 noundef zeroext true)
          to label %34 unwind label %20

34:                                               ; preds = %30
  invoke void @_ZN11ImageViewer13updateActionsEv(ptr noundef nonnull align 8 dereferenceable(160) %12)
          to label %35 unwind label %20

35:                                               ; preds = %34
  %36 = getelementptr inbounds nuw %class.ImageViewer, ptr %12, i32 0, i32 12
  %37 = load ptr, ptr %36, align 8, !tbaa !43
  %38 = invoke noundef zeroext i1 @_ZNK7QAction9isCheckedEv(ptr noundef nonnull align 8 dereferenceable(16) %37)
          to label %39 unwind label %20

39:                                               ; preds = %35
  br i1 %38, label %53, label %40

40:                                               ; preds = %39
  %41 = getelementptr inbounds nuw %class.ImageViewer, ptr %12, i32 0, i32 3
  %42 = load ptr, ptr %41, align 8, !tbaa !10
  invoke void @_ZN7QWidget10adjustSizeEv(ptr noundef nonnull align 8 dereferenceable(40) %42)
          to label %43 unwind label %20

43:                                               ; preds = %40
  br label %53

44:                                               ; preds = %24
  %45 = landingpad { ptr, i32 }
          cleanup
  %46 = extractvalue { ptr, i32 } %45, 0
  store ptr %46, ptr %7, align 8
  %47 = extractvalue { ptr, i32 } %45, 1
  store i32 %47, ptr %8, align 4
  br label %52

48:                                               ; preds = %29
  %49 = landingpad { ptr, i32 }
          cleanup
  %50 = extractvalue { ptr, i32 } %49, 0
  store ptr %50, ptr %7, align 8
  %51 = extractvalue { ptr, i32 } %49, 1
  store i32 %51, ptr %8, align 4
  call void @_ZN7QPixmapD1Ev(ptr noundef nonnull align 8 dereferenceable(24) %10) #12
  br label %52

52:                                               ; preds = %48, %44
  call void @llvm.lifetime.end.p0(i64 24, ptr %10) #12
  br label %57

53:                                               ; preds = %43, %39
  store i32 0, ptr %9, align 4
  br label %54

54:                                               ; preds = %53, %19
  call void @_ZN6QImageD1Ev(ptr noundef nonnull align 8 dereferenceable(24) %6) #12
  call void @llvm.lifetime.end.p0(i64 24, ptr %6) #12
  %55 = load i32, ptr %9, align 4
  switch i32 %55, label %66 [
    i32 0, label %56
    i32 1, label %59
  ]

56:                                               ; preds = %54
  br label %58

57:                                               ; preds = %52, %20
  call void @_ZN6QImageD1Ev(ptr noundef nonnull align 8 dereferenceable(24) %6) #12
  call void @llvm.lifetime.end.p0(i64 24, ptr %6) #12
  br label %61

58:                                               ; preds = %56, %2
  store i1 true, ptr %3, align 1
  br label %59

59:                                               ; preds = %58, %54
  %60 = load i1, ptr %3, align 1
  ret i1 %60

61:                                               ; preds = %57
  %62 = load ptr, ptr %7, align 8
  %63 = load i32, ptr %8, align 4
  %64 = insertvalue { ptr, i32 } poison, ptr %62, 0
  %65 = insertvalue { ptr, i32 } %64, i32 %63, 1
  resume { ptr, i32 } %65

66:                                               ; preds = %54
  unreachable
}