; Function Attrs: mustprogress uwtable
define noundef zeroext i1 @_ZN11ImageViewer4openERK7QString(ptr noundef nonnull align 8 captures(none) dereferenceable(160) %0, ptr noundef nonnull align 8 dereferenceable(24) %1) local_unnamed_addr #0 align 2 personality ptr @__gxx_personality_v0 {
  %3 = alloca %class.QImage, align 8
  %4 = alloca %class.QPixmap, align 8
  %5 = getelementptr inbounds nuw i8, ptr %1, i64 16
  %6 = load i64, ptr %5, align 8, !tbaa !87
  %7 = icmp eq i64 %6, 0
  br i1 %7, label %48, label %8

8:                                                ; preds = %2
  call void @llvm.lifetime.start.p0(i64 24, ptr nonnull %3) #9
  call void @_ZN6QImageC1ERK7QStringPKc(ptr noundef nonnull align 8 dereferenceable(24) %3, ptr noundef nonnull align 8 dereferenceable(24) %1, ptr noundef null)
  %9 = invoke noundef zeroext i1 @_ZNK6QImage6isNullEv(ptr noundef nonnull align 8 dereferenceable(24) %3)
          to label %10 unwind label %11

10:                                               ; preds = %8
  br i1 %9, label %.sink.split, label %13

11:                                               ; preds = %.noexc17, %.noexc16, %.noexc15, %.noexc14, %.noexc, %21, %40, %_ZN11ImageViewer13updateActionsEv.exit, %17, %8
  %12 = landingpad { ptr, i32 }
          cleanup
  br label %47

13:                                               ; preds = %10
  %14 = getelementptr inbounds nuw i8, ptr %0, i64 56
  %15 = load ptr, ptr %14, align 8, !tbaa !6
  call void @llvm.lifetime.start.p0(i64 24, ptr nonnull %4) #9
  invoke void @_ZN7QPixmap9fromImageERK6QImage6QFlagsIN2Qt19ImageConversionFlagEE(ptr dead_on_unwind nonnull writable sret(%class.QPixmap) align 8 %4, ptr noundef nonnull align 8 dereferenceable(24) %3, i32 0)
          to label %16 unwind label %42

16:                                               ; preds = %13
  invoke void @_ZN6QLabel9setPixmapERK7QPixmap(ptr noundef nonnull align 8 dereferenceable(40) %15, ptr noundef nonnull align 8 dereferenceable(24) %4)
          to label %17 unwind label %44

17:                                               ; preds = %16
  call void @_ZN7QPixmapD1Ev(ptr noundef nonnull align 8 dereferenceable(24) %4) #9
  call void @llvm.lifetime.end.p0(i64 24, ptr nonnull %4) #9
  %18 = getelementptr inbounds nuw i8, ptr %0, i64 72
  store double 1.000000e+00, ptr %18, align 8, !tbaa !89
  %19 = getelementptr inbounds nuw i8, ptr %0, i64 128
  %20 = load ptr, ptr %19, align 8, !tbaa !70
  invoke void @_ZN7QAction10setEnabledEb(ptr noundef nonnull align 8 dereferenceable(16) %20, i1 noundef zeroext true)
          to label %21 unwind label %11

21:                                               ; preds = %17
  %22 = getelementptr inbounds nuw i8, ptr %0, i64 104
  %23 = load ptr, ptr %22, align 8, !tbaa !58
  %24 = load ptr, ptr %19, align 8, !tbaa !70
  %25 = invoke noundef zeroext i1 @_ZNK7QAction9isCheckedEv(ptr noundef nonnull align 8 dereferenceable(16) %24)
          to label %.noexc unwind label %11

.noexc:                                           ; preds = %21
  %26 = xor i1 %25, true
  invoke void @_ZN7QAction10setEnabledEb(ptr noundef nonnull align 8 dereferenceable(16) %23, i1 noundef zeroext %26)
          to label %.noexc14 unwind label %11

.noexc14:                                         ; preds = %.noexc
  %27 = getelementptr inbounds nuw i8, ptr %0, i64 112
  %28 = load ptr, ptr %27, align 8, !tbaa !62
  %29 = load ptr, ptr %19, align 8, !tbaa !70
  %30 = invoke noundef zeroext i1 @_ZNK7QAction9isCheckedEv(ptr noundef nonnull align 8 dereferenceable(16) %29)
          to label %.noexc15 unwind label %11

.noexc15:                                         ; preds = %.noexc14
  %31 = xor i1 %30, true
  invoke void @_ZN7QAction10setEnabledEb(ptr noundef nonnull align 8 dereferenceable(16) %28, i1 noundef zeroext %31)
          to label %.noexc16 unwind label %11

.noexc16:                                         ; preds = %.noexc15
  %32 = getelementptr inbounds nuw i8, ptr %0, i64 120
  %33 = load ptr, ptr %32, align 8, !tbaa !66
  %34 = load ptr, ptr %19, align 8, !tbaa !70
  %35 = invoke noundef zeroext i1 @_ZNK7QAction9isCheckedEv(ptr noundef nonnull align 8 dereferenceable(16) %34)
          to label %.noexc17 unwind label %11

.noexc17:                                         ; preds = %.noexc16
  %36 = xor i1 %35, true
  invoke void @_ZN7QAction10setEnabledEb(ptr noundef nonnull align 8 dereferenceable(16) %33, i1 noundef zeroext %36)
          to label %_ZN11ImageViewer13updateActionsEv.exit unwind label %11

_ZN11ImageViewer13updateActionsEv.exit:           ; preds = %.noexc17
  %37 = load ptr, ptr %19, align 8, !tbaa !70
  %38 = invoke noundef zeroext i1 @_ZNK7QAction9isCheckedEv(ptr noundef nonnull align 8 dereferenceable(16) %37)
          to label %39 unwind label %11

39:                                               ; preds = %_ZN11ImageViewer13updateActionsEv.exit
  br i1 %38, label %.sink.split, label %40

40:                                               ; preds = %39
  %41 = load ptr, ptr %14, align 8, !tbaa !6
  invoke void @_ZN7QWidget10adjustSizeEv(ptr noundef nonnull align 8 dereferenceable(40) %41)
          to label %.sink.split unwind label %11

42:                                               ; preds = %13
  %43 = landingpad { ptr, i32 }
          cleanup
  br label %46

44:                                               ; preds = %16
  %45 = landingpad { ptr, i32 }
          cleanup
  call void @_ZN7QPixmapD1Ev(ptr noundef nonnull align 8 dereferenceable(24) %4) #9
  br label %46

46:                                               ; preds = %44, %42
  %.pn = phi { ptr, i32 } [ %45, %44 ], [ %43, %42 ]
  call void @llvm.lifetime.end.p0(i64 24, ptr nonnull %4) #9
  br label %47

47:                                               ; preds = %46, %11
  %.pn12 = phi { ptr, i32 } [ %12, %11 ], [ %.pn, %46 ]
  call void @_ZN6QImageD1Ev(ptr noundef nonnull align 8 dereferenceable(24) %3) #9
  call void @llvm.lifetime.end.p0(i64 24, ptr nonnull %3) #9
  resume { ptr, i32 } %.pn12

.sink.split:                                      ; preds = %10, %40, %39
  %.110.ph = xor i1 %9, true
  call void @_ZN6QImageD1Ev(ptr noundef nonnull align 8 dereferenceable(24) %3) #9
  call void @llvm.lifetime.end.p0(i64 24, ptr nonnull %3) #9
  br label %48

48:                                               ; preds = %.sink.split, %2
  %.110 = phi i1 [ true, %2 ], [ %.110.ph, %.sink.split ]
  ret i1 %.110
}